target datalayout = "e-m:e-p270:32:32-p271:32:32-p272:64:64-i64:64-i128:128-f80:128-n8:16:32:64-S128"
target triple = "x86_64-pc-linux-gnu"

%struct.PGPROC = type { %struct.dlist_node, ptr, ptr, i32, %struct.Latch, i32, i32, i32, i32, %struct.anon, i32, i32, i32, i8, i8, i8, i8, %struct.proclist_node, %struct.proclist_node, ptr, ptr, i32, i32, %struct.pg_atomic_uint64, i32, i8, i64, i32, %struct.dlist_node, [16 x %struct.dlist_head], %struct.XidCacheStatus, %struct.XidCache, i8, %struct.pg_atomic_uint32, i32, i32, i8, %struct.pg_atomic_uint32, i32, i32, i64, i64, %struct.LWLock, ptr, ptr, i8, i32, ptr, %struct.dlist_head, %struct.dlist_node }
%struct.Latch = type { i32, i32, i8, i32 }
%struct.anon = type { i32, i32 }
%struct.proclist_node = type { i32, i32 }
%struct.pg_atomic_uint64 = type { i64 }
%struct.XidCacheStatus = type { i8, i8 }
%struct.XidCache = type { [64 x i32] }
%struct.pg_atomic_uint32 = type { i32 }
%struct.LWLock = type { i16, %struct.pg_atomic_uint32, %struct.proclist_head }
%struct.proclist_head = type { i32, i32 }
%struct.dlist_head = type { %struct.dlist_node }
%struct.dlist_node = type { ptr, ptr }
%struct.PROC_HDR = type { ptr, ptr, ptr, ptr, i32, %struct.dlist_head, %struct.dlist_head, %struct.dlist_head, %struct.dlist_head, %struct.pg_atomic_uint32, %struct.pg_atomic_uint32, i32, i32, i32, i32 }

@.str.3 = private unnamed_addr constant [14 x i8] c"signalfuncs.c\00", align 1
@.str.7 = private unnamed_addr constant [18 x i8] c"pg_signal_backend\00", align 1
@.str.15 = private unnamed_addr constant [43 x i8] c"PID %d is not a PostgreSQL backend process\00", align 1
@ProcGlobal = external global ptr, align 8
@.str.16 = private unnamed_addr constant [40 x i8] c"could not send signal to process %d: %m\00", align 1

; Function Attrs: nounwind uwtable
define internal i32 @pg_signal_backend(i32 noundef %0, i32 noundef %1) #0 {
  %3 = alloca i32, align 4
  %4 = alloca i32, align 4
  %5 = alloca i32, align 4
  %6 = alloca ptr, align 8
  %7 = alloca i32, align 4
  %8 = alloca i32, align 4
  %9 = alloca i32, align 4
  store i32 %0, ptr %4, align 4
  store i32 %1, ptr %5, align 4
  call void @llvm.lifetime.start.p0(i64 8, ptr %6) #8
  %10 = load i32, ptr %4, align 4
  %11 = call ptr @BackendPidGetProc(i32 noundef %10)
  store ptr %11, ptr %6, align 8
  %12 = load ptr, ptr %6, align 8
  %13 = icmp eq ptr %12, null
  br i1 %13, label %14, label %26

14:                                               ; preds = %2
  br label %15

15:                                               ; preds = %14
  br i1 false, label %16, label %18

16:                                               ; preds = %15
  %17 = call zeroext i1 @errstart_cold(i32 noundef 19, ptr noundef null) #9
  br i1 %17, label %20, label %23

18:                                               ; preds = %15
  %19 = call zeroext i1 @errstart(i32 noundef 19, ptr noundef null)
  br i1 %19, label %20, label %23

20:                                               ; preds = %18, %16
  %21 = load i32, ptr %4, align 4
  %22 = call i32 (ptr, ...) @errmsg(ptr noundef @.str.15, i32 noundef %21)
  call void @errfinish(ptr noundef @.str.3, i32 noundef 74, ptr noundef @.str.7)
  br label %23

23:                                               ; preds = %20, %18, %16
  br label %24

24:                                               ; preds = %23
  br label %25

25:                                               ; preds = %24
  store i32 1, ptr %3, align 4
  store i32 1, ptr %7, align 4
  br label %94

26:                                               ; preds = %2
  %27 = load ptr, ptr %6, align 8
  %28 = getelementptr inbounds nuw %struct.PGPROC, ptr %27, i32 0, i32 11
  %29 = load i32, ptr %28, align 8
  %30 = icmp ne i32 %29, 0
  br i1 %30, label %31, label %36

31:                                               ; preds = %26
  %32 = load ptr, ptr %6, align 8
  %33 = getelementptr inbounds nuw %struct.PGPROC, ptr %32, i32 0, i32 11
  %34 = load i32, ptr %33, align 8
  %35 = call zeroext i1 @superuser_arg(i32 noundef %34)
  br i1 %35, label %36, label %64

36:                                               ; preds = %31, %26
  call void @llvm.lifetime.start.p0(i64 4, ptr %8) #8
  %37 = load ptr, ptr %6, align 8
  %38 = load ptr, ptr @ProcGlobal, align 8
  %39 = getelementptr inbounds nuw %struct.PROC_HDR, ptr %38, i32 0, i32 0
  %40 = load ptr, ptr %39, align 8
  %41 = getelementptr inbounds %struct.PGPROC, ptr %40, i64 0
  %42 = ptrtoint ptr %37 to i64
  %43 = ptrtoint ptr %41 to i64
  %44 = sub i64 %42, %43
  %45 = sdiv exact i64 %44, 832
  %46 = trunc i64 %45 to i32
  store i32 %46, ptr %8, align 4
  call void @llvm.lifetime.start.p0(i64 4, ptr %9) #8
  %47 = load i32, ptr %8, align 4
  %48 = call i32 @pgstat_get_backend_type_by_proc_number(i32 noundef %47)
  store i32 %48, ptr %9, align 4
  %49 = load i32, ptr %9, align 4
  %50 = icmp eq i32 %49, 4
  br i1 %50, label %51, label %56

51:                                               ; preds = %36
  %52 = call i32 @GetUserId()
  %53 = call zeroext i1 @has_privs_of_role(i32 noundef %52, i32 noundef 8916)
  br i1 %53, label %55, label %54

54:                                               ; preds = %51
  store i32 4, ptr %3, align 4
  store i32 1, ptr %7, align 4
  br label %61

55:                                               ; preds = %51
  br label %60

56:                                               ; preds = %36
  %57 = call zeroext i1 @superuser()
  br i1 %57, label %59, label %58

58:                                               ; preds = %56
  store i32 3, ptr %3, align 4
  store i32 1, ptr %7, align 4
  br label %61

59:                                               ; preds = %56
  br label %60

60:                                               ; preds = %59, %55
  store i32 0, ptr %7, align 4
  br label %61

61:                                               ; preds = %60, %58, %54
  call void @llvm.lifetime.end.p0(i64 4, ptr %9) #8
  call void @llvm.lifetime.end.p0(i64 4, ptr %8) #8
  %62 = load i32, ptr %7, align 4
  switch i32 %62, label %94 [
    i32 0, label %63
  ]

63:                                               ; preds = %61
  br label %75

64:                                               ; preds = %31
  %65 = call i32 @GetUserId()
  %66 = load ptr, ptr %6, align 8
  %67 = getelementptr inbounds nuw %struct.PGPROC, ptr %66, i32 0, i32 11
  %68 = load i32, ptr %67, align 8
  %69 = call zeroext i1 @has_privs_of_role(i32 noundef %65, i32 noundef %68)
  br i1 %69, label %74, label %70

70:                                               ; preds = %64
  %71 = call i32 @GetUserId()
  %72 = call zeroext i1 @has_privs_of_role(i32 noundef %71, i32 noundef 4200)
  br i1 %72, label %74, label %73

73:                                               ; preds = %70
  store i32 2, ptr %3, align 4
  store i32 1, ptr %7, align 4
  br label %94

74:                                               ; preds = %70, %64
  br label %75

75:                                               ; preds = %74, %63
  %76 = load i32, ptr %4, align 4
  %77 = sub i32 0, %76
  %78 = load i32, ptr %5, align 4
  %79 = call i32 @kill(i32 noundef %77, i32 noundef %78) #8
  %80 = icmp ne i32 %79, 0
  br i1 %80, label %81, label %93

81:                                               ; preds = %75
  br label %82

82:                                               ; preds = %81
  br i1 false, label %83, label %85

83:                                               ; preds = %82
  %84 = call zeroext i1 @errstart_cold(i32 noundef 19, ptr noundef null) #9
  br i1 %84, label %87, label %90

85:                                               ; preds = %82
  %86 = call zeroext i1 @errstart(i32 noundef 19, ptr noundef null)
  br i1 %86, label %87, label %90

87:                                               ; preds = %85, %83
  %88 = load i32, ptr %4, align 4
  %89 = call i32 (ptr, ...) @errmsg(ptr noundef @.str.16, i32 noundef %88)
  call void @errfinish(ptr noundef @.str.3, i32 noundef 123, ptr noundef @.str.7)
  br label %90

90:                                               ; preds = %87, %85, %83
  br label %91

91:                                               ; preds = %90
  br label %92

92:                                               ; preds = %91
  store i32 1, ptr %3, align 4
  store i32 1, ptr %7, align 4
  br label %94

93:                                               ; preds = %75
  store i32 0, ptr %3, align 4
  store i32 1, ptr %7, align 4
  br label %94

94:                                               ; preds = %93, %92, %73, %61, %25
  call void @llvm.lifetime.end.p0(i64 8, ptr %6) #8
  %95 = load i32, ptr %3, align 4
  ret i32 %95
}