; Function Attrs: nounwind uwtable
define internal fastcc range(i32 0, 5) i32 @pg_signal_backend(i32 noundef %0, i32 noundef range(i32 2, 16) %1) unnamed_addr #0 {
  %3 = tail call ptr @BackendPidGetProc(i32 noundef %0) #8
  %4 = icmp eq ptr %3, null
  br i1 %4, label %5, label %7

5:                                                ; preds = %2
  %6 = tail call zeroext i1 @errstart(i32 noundef 19, ptr noundef null) #8
  br i1 %6, label %.thread.sink.split, label %.thread

7:                                                ; preds = %2
  %8 = getelementptr inbounds nuw i8, ptr %3, i64 80
  %9 = load i32, ptr %8, align 8
  %.not = icmp eq i32 %9, 0
  br i1 %.not, label %12, label %10

10:                                               ; preds = %7
  %11 = tail call zeroext i1 @superuser_arg(i32 noundef %9) #8
  br i1 %11, label %12, label %27

12:                                               ; preds = %10, %7
  %13 = load ptr, ptr @ProcGlobal, align 8
  %14 = load ptr, ptr %13, align 8
  %15 = ptrtoint ptr %3 to i64
  %16 = ptrtoint ptr %14 to i64
  %17 = sub i64 %15, %16
  %18 = sdiv exact i64 %17, 832
  %19 = trunc i64 %18 to i32
  %20 = tail call i32 @pgstat_get_backend_type_by_proc_number(i32 noundef %19) #8
  %21 = icmp eq i32 %20, 4
  br i1 %21, label %22, label %25

22:                                               ; preds = %12
  %23 = tail call i32 @GetUserId() #8
  %24 = tail call zeroext i1 @has_privs_of_role(i32 noundef %23, i32 noundef 8916) #8
  br i1 %24, label %34, label %.thread

25:                                               ; preds = %12
  %26 = tail call zeroext i1 @superuser() #8
  br i1 %26, label %34, label %.thread

27:                                               ; preds = %10
  %28 = tail call i32 @GetUserId() #8
  %29 = load i32, ptr %8, align 8
  %30 = tail call zeroext i1 @has_privs_of_role(i32 noundef %28, i32 noundef %29) #8
  br i1 %30, label %34, label %31

31:                                               ; preds = %27
  %32 = tail call i32 @GetUserId() #8
  %33 = tail call zeroext i1 @has_privs_of_role(i32 noundef %32, i32 noundef 4200) #8
  br i1 %33, label %34, label %.thread

34:                                               ; preds = %25, %22, %27, %31
  %35 = sub i32 0, %0
  %36 = tail call i32 @kill(i32 noundef %35, i32 noundef %1) #8
  %.not16 = icmp eq i32 %36, 0
  br i1 %.not16, label %.thread, label %37

37:                                               ; preds = %34
  %38 = tail call zeroext i1 @errstart(i32 noundef 19, ptr noundef null) #8
  br i1 %38, label %.thread.sink.split, label %.thread

.thread.sink.split:                               ; preds = %37, %5
  %.str.16.sink = phi ptr [ @.str.15, %5 ], [ @.str.16, %37 ]
  %.sink = phi i32 [ 74, %5 ], [ 123, %37 ]
  %39 = tail call i32 (ptr, ...) @errmsg(ptr noundef nonnull %.str.16.sink, i32 noundef %0) #8
  tail call void @errfinish(ptr noundef nonnull @.str.3, i32 noundef %.sink, ptr noundef nonnull @.str.7) #8
  br label %.thread

.thread:                                          ; preds = %.thread.sink.split, %25, %22, %34, %37, %31, %5
  %.0 = phi i32 [ 1, %5 ], [ 2, %31 ], [ 1, %37 ], [ 0, %34 ], [ 3, %25 ], [ 4, %22 ], [ 1, %.thread.sink.split ]
  ret i32 %.0
}